target datalayout = "e-m:e-p270:32:32-p271:32:32-p272:64:64-i64:64-i128:128-f80:128-n8:16:32:64-S128"
target triple = "x86_64-pc-linux-gnu"

%struct.FormatEntry = type { i8 }

; Function Attrs: nounwind uwtable
define i32 @sws_isSupportedInput(i32 noundef %0) #0 {
  %2 = alloca i32, align 4
  store i32 %0, ptr %2, align 4, !tbaa !4
  %3 = load i32, ptr %2, align 4, !tbaa !4
  %4 = zext i32 %3 to i64
  %5 = icmp ult i64 %4, 256
  br i1 %5, label %6, label %13

6:                                                ; preds = %1
  %7 = load i32, ptr %2, align 4, !tbaa !4
  %8 = sext i32 %7 to i64
  %9 = getelementptr inbounds [256 x %struct.FormatEntry], ptr @format_entries, i64 0, i64 %8
  %10 = load i8, ptr %9, align 1
  %11 = and i8 %10, 1
  %12 = zext i8 %11 to i32
  br label %14

13:                                               ; preds = %1
  br label %14

14:                                               ; preds = %13, %6
  %15 = phi i32 [ %12, %6 ], [ 0, %13 ]
  ret i32 %15
}