; Function Attrs: mustprogress nofree norecurse nosync nounwind willreturn memory(none) uwtable
define range(i32 0, 2) i32 @sws_isSupportedInput(i32 noundef %0) local_unnamed_addr #0 {
  %2 = icmp ult i32 %0, 256
  br i1 %2, label %3, label %9

3:                                                ; preds = %1
  %4 = zext nneg i32 %0 to i64
  %5 = getelementptr inbounds nuw [256 x %struct.FormatEntry], ptr @format_entries, i64 0, i64 %4
  %6 = load i8, ptr %5, align 1
  %7 = and i8 %6, 1
  %8 = zext nneg i8 %7 to i32
  br label %9

9:                                                ; preds = %1, %3
  %10 = phi i32 [ %8, %3 ], [ 0, %1 ]
  ret i32 %10
}